; Function Attrs: mustprogress uwtable
define hidden void @_ZN4ncnn6ConcatC2Ev(ptr noundef nonnull align 8 dereferenceable(212) %0) unnamed_addr #2 align 2 {
  tail call void @_ZN4ncnn5LayerC2Ev(ptr noundef nonnull align 8 dereferenceable(208) %0)
  store ptr getelementptr inbounds nuw inrange(-16, 80) (i8, ptr @_ZTVN4ncnn6ConcatE, i64 16), ptr %0, align 8, !tbaa !57
  %2 = getelementptr inbounds nuw i8, ptr %0, i64 8
  store i8 0, ptr %2, align 8, !tbaa !59
  %3 = getelementptr inbounds nuw i8, ptr %0, i64 9
  store i8 0, ptr %3, align 1, !tbaa !60
  ret void
}